; Function Attrs: mustprogress nofree nounwind memory(read, argmem: readwrite) uwtable
define noundef zeroext i1 @_ZN4base17HexStringToUInt64ERKNS_16BasicStringPieceINSt7__cxx1112basic_stringIcSt11char_traitsIcESaIcEEEEEPm(ptr noundef nonnull readonly align 8 captures(none) dereferenceable(16) %0, ptr noundef writeonly captures(none) %1) local_unnamed_addr #3 {
  %3 = load ptr, ptr %0, align 8, !tbaa !62
  %4 = getelementptr inbounds nuw i8, ptr %0, i64 8
  %5 = load i64, ptr %4, align 8, !tbaa !64
  %6 = getelementptr inbounds nuw i8, ptr %3, i64 %5
  %7 = ptrtoint ptr %6 to i64
  %.not24.i = icmp samesign eq i64 %5, 0
  br i1 %.not24.i, label %.critedge18.i, label %.lr.ph.i.preheader

.lr.ph.i.preheader:                               ; preds = %2
  %8 = load i8, ptr %3, align 1, !tbaa !6
  %9 = zext i8 %8 to i32
  %10 = tail call i32 @isspace(i32 noundef %9) #20
  %.not20.i9 = icmp eq i32 %10, 0
  br i1 %.not20.i9, label %.critedge.i, label %.lr.ph

.lr.ph.i:                                         ; preds = %.lr.ph
  %11 = load i8, ptr %14, align 1, !tbaa !6
  %12 = zext i8 %11 to i32
  %13 = tail call i32 @isspace(i32 noundef %12) #20
  %.not20.i = icmp eq i32 %13, 0
  br i1 %.not20.i, label %.critedge.i, label %.lr.ph, !llvm.loop !102

.lr.ph:                                           ; preds = %.lr.ph.i.preheader, %.lr.ph.i
  %.01525.i10 = phi ptr [ %14, %.lr.ph.i ], [ %3, %.lr.ph.i.preheader ]
  %14 = getelementptr inbounds nuw i8, ptr %.01525.i10, i64 1
  %.not.i = icmp eq ptr %14, %6
  br i1 %.not.i, label %_ZN4base12_GLOBAL__N_121IteratorRangeToNumberINS0_34BaseHexIteratorRangeToUInt64TraitsIPKcEEE4BaseINS6_8PositiveEE6InvokeES4_S4_Pm.exit.i.sink.split, label %.lr.ph.i, !llvm.loop !102

.critedge.i:                                      ; preds = %.lr.ph.i, %.lr.ph.i.preheader
  %.01525.i.lcssa = phi ptr [ %3, %.lr.ph.i.preheader ], [ %14, %.lr.ph.i ]
  %.lcssa = phi i8 [ %8, %.lr.ph.i.preheader ], [ %11, %.lr.ph.i ]
  %15 = icmp eq i8 %.lcssa, 45
  br i1 %15, label %16, label %.critedge17.i

16:                                               ; preds = %.critedge.i
  store i64 0, ptr %1, align 8, !tbaa !18
  br label %_ZN4base12_GLOBAL__N_121IteratorRangeToNumberINS0_34BaseHexIteratorRangeToUInt64TraitsIPKcEEE6InvokeES4_S4_Pm.exit

.critedge17.i:                                    ; preds = %.critedge.i
  %17 = icmp eq i8 %.lcssa, 43
  %spec.select.idx.i = zext i1 %17 to i64
  %spec.select.i = getelementptr inbounds nuw i8, ptr %.01525.i.lcssa, i64 %spec.select.idx.i
  br label %.critedge18.i

.critedge18.i:                                    ; preds = %.critedge17.i, %2
  %.022.i = phi i1 [ %.not20.i9, %.critedge17.i ], [ true, %2 ]
  %.116.i = phi ptr [ %spec.select.i, %.critedge17.i ], [ %3, %2 ]
  store i64 0, ptr %1, align 8, !tbaa !18
  %18 = icmp eq ptr %.116.i, %6
  br i1 %18, label %_ZN4base12_GLOBAL__N_121IteratorRangeToNumberINS0_34BaseHexIteratorRangeToUInt64TraitsIPKcEEE4BaseINS6_8PositiveEE6InvokeES4_S4_Pm.exit.i, label %19

19:                                               ; preds = %.critedge18.i
  %20 = ptrtoint ptr %.116.i to i64
  %21 = sub i64 %7, %20
  %22 = icmp sgt i64 %21, 2
  br i1 %22, label %23, label %31

23:                                               ; preds = %19
  %24 = load i8, ptr %.116.i, align 1, !tbaa !6
  %25 = icmp eq i8 %24, 48
  br i1 %25, label %26, label %31

26:                                               ; preds = %23
  %27 = getelementptr inbounds nuw i8, ptr %.116.i, i64 1
  %28 = load i8, ptr %27, align 1, !tbaa !6
  switch i8 %28, label %31 [
    i8 120, label %29
    i8 88, label %29
  ]

29:                                               ; preds = %26, %26
  %30 = getelementptr inbounds nuw i8, ptr %.116.i, i64 2
  br label %31

31:                                               ; preds = %29, %26, %23, %19
  %.024.i.i = phi ptr [ %30, %29 ], [ %.116.i, %23 ], [ %.116.i, %19 ], [ %.116.i, %26 ]
  %.not36.i.i = icmp eq ptr %.024.i.i, %6
  br i1 %.not36.i.i, label %_ZN4base12_GLOBAL__N_121IteratorRangeToNumberINS0_34BaseHexIteratorRangeToUInt64TraitsIPKcEEE4BaseINS6_8PositiveEE6InvokeES4_S4_Pm.exit.i, label %.lr.ph.i.i

.lr.ph.i.i:                                       ; preds = %31, %.critedge.i.i
  %32 = phi i64 [ %50, %.critedge.i.i ], [ 0, %31 ]
  %.02137.i.i = phi ptr [ %51, %.critedge.i.i ], [ %.024.i.i, %31 ]
  %33 = load i8, ptr %.02137.i.i, align 1, !tbaa !6
  %34 = add i8 %33, -48
  %or.cond.i.i.i.i = icmp ult i8 %34, 10
  br i1 %or.cond.i.i.i.i, label %43, label %35

35:                                               ; preds = %.lr.ph.i.i
  %36 = add i8 %33, -97
  %or.cond5.i.i.i.i = icmp ult i8 %36, 6
  br i1 %or.cond5.i.i.i.i, label %37, label %39

37:                                               ; preds = %35
  %38 = add nsw i8 %33, -87
  br label %43

39:                                               ; preds = %35
  %40 = add i8 %33, -65
  %or.cond8.i.i.i.i = icmp ult i8 %40, 6
  br i1 %or.cond8.i.i.i.i, label %41, label %_ZN4base12_GLOBAL__N_121IteratorRangeToNumberINS0_34BaseHexIteratorRangeToUInt64TraitsIPKcEEE4BaseINS6_8PositiveEE6InvokeES4_S4_Pm.exit.i

41:                                               ; preds = %39
  %42 = add nsw i8 %33, -55
  br label %43

43:                                               ; preds = %41, %37, %.lr.ph.i.i
  %.030.ph.i.i = phi i8 [ %34, %.lr.ph.i.i ], [ %38, %37 ], [ %42, %41 ]
  %.not28.i.i = icmp eq ptr %.02137.i.i, %.024.i.i
  br i1 %.not28.i.i, label %.critedge.i.i, label %44

44:                                               ; preds = %43
  %45 = icmp ugt i64 %32, 1152921504606846975
  br i1 %45, label %_ZN4base12_GLOBAL__N_121IteratorRangeToNumberINS0_34BaseHexIteratorRangeToUInt64TraitsIPKcEEE4BaseINS6_8PositiveEE6InvokeES4_S4_Pm.exit.i.sink.split, label %46

46:                                               ; preds = %44
  %47 = shl nuw i64 %32, 4
  br label %.critedge.i.i

.critedge.i.i:                                    ; preds = %46, %43
  %48 = phi i64 [ %47, %46 ], [ %32, %43 ]
  %49 = zext nneg i8 %.030.ph.i.i to i64
  %50 = add i64 %48, %49
  store i64 %50, ptr %1, align 8, !tbaa !18
  %51 = getelementptr inbounds nuw i8, ptr %.02137.i.i, i64 1
  %.not.i.i = icmp eq ptr %51, %6
  br i1 %.not.i.i, label %_ZN4base12_GLOBAL__N_121IteratorRangeToNumberINS0_34BaseHexIteratorRangeToUInt64TraitsIPKcEEE4BaseINS6_8PositiveEE6InvokeES4_S4_Pm.exit.i, label %.lr.ph.i.i, !llvm.loop !103

_ZN4base12_GLOBAL__N_121IteratorRangeToNumberINS0_34BaseHexIteratorRangeToUInt64TraitsIPKcEEE4BaseINS6_8PositiveEE6InvokeES4_S4_Pm.exit.i.sink.split: ; preds = %.lr.ph, %44
  %.sink = phi i64 [ -1, %44 ], [ 0, %.lr.ph ]
  %.022.i5.ph = phi i1 [ %.022.i, %44 ], [ false, %.lr.ph ]
  store i64 %.sink, ptr %1, align 8, !tbaa !18
  br label %_ZN4base12_GLOBAL__N_121IteratorRangeToNumberINS0_34BaseHexIteratorRangeToUInt64TraitsIPKcEEE4BaseINS6_8PositiveEE6InvokeES4_S4_Pm.exit.i

_ZN4base12_GLOBAL__N_121IteratorRangeToNumberINS0_34BaseHexIteratorRangeToUInt64TraitsIPKcEEE4BaseINS6_8PositiveEE6InvokeES4_S4_Pm.exit.i: ; preds = %.critedge.i.i, %39, %_ZN4base12_GLOBAL__N_121IteratorRangeToNumberINS0_34BaseHexIteratorRangeToUInt64TraitsIPKcEEE4BaseINS6_8PositiveEE6InvokeES4_S4_Pm.exit.i.sink.split, %31, %.critedge18.i
  %.022.i5 = phi i1 [ %.022.i, %.critedge18.i ], [ %.022.i, %31 ], [ %.022.i5.ph, %_ZN4base12_GLOBAL__N_121IteratorRangeToNumberINS0_34BaseHexIteratorRangeToUInt64TraitsIPKcEEE4BaseINS6_8PositiveEE6InvokeES4_S4_Pm.exit.i.sink.split ], [ %.022.i, %39 ], [ %.022.i, %.critedge.i.i ]
  %.022.i.i = phi i1 [ false, %.critedge18.i ], [ true, %31 ], [ false, %_ZN4base12_GLOBAL__N_121IteratorRangeToNumberINS0_34BaseHexIteratorRangeToUInt64TraitsIPKcEEE4BaseINS6_8PositiveEE6InvokeES4_S4_Pm.exit.i.sink.split ], [ true, %.critedge.i.i ], [ false, %39 ]
  %spec.select19.i = and i1 %.022.i5, %.022.i.i
  br label %_ZN4base12_GLOBAL__N_121IteratorRangeToNumberINS0_34BaseHexIteratorRangeToUInt64TraitsIPKcEEE6InvokeES4_S4_Pm.exit

_ZN4base12_GLOBAL__N_121IteratorRangeToNumberINS0_34BaseHexIteratorRangeToUInt64TraitsIPKcEEE6InvokeES4_S4_Pm.exit: ; preds = %16, %_ZN4base12_GLOBAL__N_121IteratorRangeToNumberINS0_34BaseHexIteratorRangeToUInt64TraitsIPKcEEE4BaseINS6_8PositiveEE6InvokeES4_S4_Pm.exit.i
  %.1.i = phi i1 [ false, %16 ], [ %spec.select19.i, %_ZN4base12_GLOBAL__N_121IteratorRangeToNumberINS0_34BaseHexIteratorRangeToUInt64TraitsIPKcEEE4BaseINS6_8PositiveEE6InvokeES4_S4_Pm.exit.i ]
  ret i1 %.1.i
}